target datalayout = "e-m:e-p270:32:32-p271:32:32-p272:64:64-i64:64-i128:128-f80:128-n8:16:32:64-S128"
target triple = "x86_64-pc-linux-gnu"

%"class.std::vector" = type { %"struct.std::_Vector_base" }
%"struct.std::_Vector_base" = type { %"struct.std::_Vector_base<std::function<std::__cxx11::basic_string<char> ()>, std::allocator<std::function<std::__cxx11::basic_string<char> ()>>>::_Vector_impl" }
%"struct.std::_Vector_base<std::function<std::__cxx11::basic_string<char> ()>, std::allocator<std::function<std::__cxx11::basic_string<char> ()>>>::_Vector_impl" = type { %"struct.std::_Vector_base<std::function<std::__cxx11::basic_string<char> ()>, std::allocator<std::function<std::__cxx11::basic_string<char> ()>>>::_Vector_impl_data" }
%"struct.std::_Vector_base<std::function<std::__cxx11::basic_string<char> ()>, std::allocator<std::function<std::__cxx11::basic_string<char> ()>>>::_Vector_impl_data" = type { ptr, ptr, ptr }
%"class.std::function" = type { %"class.std::_Function_base", ptr }
%"class.std::_Function_base" = type { %"union.std::_Any_data", ptr }
%"union.std::_Any_data" = type { %"union.std::_Nocopy_types" }
%"union.std::_Nocopy_types" = type { { i64, i64 } }

@_ZN4pbrt18CheckCallbackScope9callbacksB5cxx11E = dso_local global %"class.std::vector" zeroinitializer, align 8
@.str.6 = private unnamed_addr constant [117 x i8] c"generated/home/dtcxzyw/WorkSpace/Projects/compilers/llvm-opt-benchmark/bench/pbrt-v4/pbrt-v4/src/pbrt/util/check.cpp\00", align 1
@.str.7 = private unnamed_addr constant [44 x i8] c"Check failed: %s > %s with %s = %s, %s = %s\00", align 1
@.str.8 = private unnamed_addr constant [17 x i8] c"callbacks.size()\00", align 1
@.str.9 = private unnamed_addr constant [2 x i8] c"0\00", align 1

; Function Attrs: mustprogress nounwind uwtable
define linkonce_odr dso_local void @_ZNSt14_Function_baseD2Ev(ptr noundef nonnull align 8 dereferenceable(24) %0) unnamed_addr #7 comdat align 2 personality ptr @__gxx_personality_v0 {
  %2 = alloca ptr, align 8
  store ptr %0, ptr %2, align 8, !tbaa !73
  %3 = load ptr, ptr %2, align 8
  %4 = getelementptr inbounds nuw %"class.std::_Function_base", ptr %3, i32 0, i32 1
  %5 = load ptr, ptr %4, align 8, !tbaa !75
  %6 = icmp ne ptr %5, null
  br i1 %6, label %7, label %14

7:                                                ; preds = %1
  %8 = getelementptr inbounds nuw %"class.std::_Function_base", ptr %3, i32 0, i32 1
  %9 = load ptr, ptr %8, align 8, !tbaa !75
  %10 = getelementptr inbounds nuw %"class.std::_Function_base", ptr %3, i32 0, i32 0
  %11 = getelementptr inbounds nuw %"class.std::_Function_base", ptr %3, i32 0, i32 0
  %12 = invoke noundef zeroext i1 %9(ptr noundef nonnull align 8 dereferenceable(16) %10, ptr noundef nonnull align 8 dereferenceable(16) %11, i32 noundef 3)
          to label %13 unwind label %15

13:                                               ; preds = %7
  br label %14

14:                                               ; preds = %13, %1
  ret void

15:                                               ; preds = %7
  %16 = landingpad { ptr, i32 }
          catch ptr null
  %17 = extractvalue { ptr, i32 } %16, 0
  call void @__clang_call_terminate(ptr %17) #19
  unreachable
}

; Function Attrs: mustprogress nounwind uwtable
define linkonce_odr dso_local void @_ZNSt15__new_allocatorISt8functionIFNSt7__cxx1112basic_stringIcSt11char_traitsIcESaIcEEEvEEE7destroyIS8_EEvPT_(ptr noundef nonnull align 1 dereferenceable(1) %0, ptr noundef %1) #7 comdat align 2 {
  %3 = alloca ptr, align 8
  %4 = alloca ptr, align 8
  store ptr %0, ptr %3, align 8, !tbaa !58
  store ptr %1, ptr %4, align 8, !tbaa !35
  %5 = load ptr, ptr %4, align 8, !tbaa !35
  call void @_ZNSt14_Function_baseD2Ev(ptr noundef nonnull align 8 dereferenceable(32) %5) #3
  ret void
}

; Function Attrs: mustprogress nounwind uwtable
define linkonce_odr dso_local void @_ZNSt16allocator_traitsISaISt8functionIFNSt7__cxx1112basic_stringIcSt11char_traitsIcESaIcEEEvEEEE7destroyIS8_EEvRS9_PT_(ptr noundef nonnull align 1 dereferenceable(1) %0, ptr noundef %1) #7 comdat align 2 {
  %3 = alloca ptr, align 8
  %4 = alloca ptr, align 8
  store ptr %0, ptr %3, align 8, !tbaa !53
  store ptr %1, ptr %4, align 8, !tbaa !35
  %5 = load ptr, ptr %3, align 8, !tbaa !53
  %6 = load ptr, ptr %4, align 8, !tbaa !35
  call void @_ZNSt15__new_allocatorISt8functionIFNSt7__cxx1112basic_stringIcSt11char_traitsIcESaIcEEEvEEE7destroyIS8_EEvPT_(ptr noundef nonnull align 1 dereferenceable(1) %5, ptr noundef %6) #3
  ret void
}

; Function Attrs: mustprogress nounwind uwtable
define linkonce_odr dso_local void @_ZNSt6vectorISt8functionIFNSt7__cxx1112basic_stringIcSt11char_traitsIcESaIcEEEvEESaIS8_EE8pop_backEv(ptr noundef nonnull align 8 dereferenceable(24) %0) #7 comdat align 2 {
  %2 = alloca ptr, align 8
  store ptr %0, ptr %2, align 8, !tbaa !23
  %3 = load ptr, ptr %2, align 8
  %4 = getelementptr inbounds nuw %"struct.std::_Vector_base", ptr %3, i32 0, i32 0
  %5 = getelementptr inbounds nuw %"struct.std::_Vector_base<std::function<std::__cxx11::basic_string<char> ()>, std::allocator<std::function<std::__cxx11::basic_string<char> ()>>>::_Vector_impl_data", ptr %4, i32 0, i32 1
  %6 = load ptr, ptr %5, align 8, !tbaa !28
  %7 = getelementptr inbounds %"class.std::function", ptr %6, i32 -1
  store ptr %7, ptr %5, align 8, !tbaa !28
  %8 = getelementptr inbounds nuw %"struct.std::_Vector_base", ptr %3, i32 0, i32 0
  %9 = getelementptr inbounds nuw %"struct.std::_Vector_base", ptr %3, i32 0, i32 0
  %10 = getelementptr inbounds nuw %"struct.std::_Vector_base<std::function<std::__cxx11::basic_string<char> ()>, std::allocator<std::function<std::__cxx11::basic_string<char> ()>>>::_Vector_impl_data", ptr %9, i32 0, i32 1
  %11 = load ptr, ptr %10, align 8, !tbaa !28
  call void @_ZNSt16allocator_traitsISaISt8functionIFNSt7__cxx1112basic_stringIcSt11char_traitsIcESaIcEEEvEEEE7destroyIS8_EEvRS9_PT_(ptr noundef nonnull align 1 dereferenceable(1) %8, ptr noundef %11) #3
  ret void
}

; Function Attrs: mustprogress nounwind uwtable
define linkonce_odr dso_local noundef i64 @_ZNKSt6vectorISt8functionIFNSt7__cxx1112basic_stringIcSt11char_traitsIcESaIcEEEvEESaIS8_EE4sizeEv(ptr noundef nonnull align 8 dereferenceable(24) %0) #7 comdat align 2 {
  %2 = alloca ptr, align 8
  store ptr %0, ptr %2, align 8, !tbaa !23
  %3 = load ptr, ptr %2, align 8
  %4 = getelementptr inbounds nuw %"struct.std::_Vector_base", ptr %3, i32 0, i32 0
  %5 = getelementptr inbounds nuw %"struct.std::_Vector_base<std::function<std::__cxx11::basic_string<char> ()>, std::allocator<std::function<std::__cxx11::basic_string<char> ()>>>::_Vector_impl_data", ptr %4, i32 0, i32 1
  %6 = load ptr, ptr %5, align 8, !tbaa !28
  %7 = getelementptr inbounds nuw %"struct.std::_Vector_base", ptr %3, i32 0, i32 0
  %8 = getelementptr inbounds nuw %"struct.std::_Vector_base<std::function<std::__cxx11::basic_string<char> ()>, std::allocator<std::function<std::__cxx11::basic_string<char> ()>>>::_Vector_impl_data", ptr %7, i32 0, i32 0
  %9 = load ptr, ptr %8, align 8, !tbaa !25
  %10 = ptrtoint ptr %6 to i64
  %11 = ptrtoint ptr %9 to i64
  %12 = sub i64 %10, %11
  %13 = sdiv exact i64 %12, 32
  ret i64 %13
}

; Function Attrs: mustprogress nounwind uwtable
define dso_local void @_ZN4pbrt18CheckCallbackScopeD2Ev(ptr noundef nonnull align 1 dereferenceable(1) %0) unnamed_addr #7 align 2 personality ptr @__gxx_personality_v0 {
  %2 = alloca ptr, align 8
  %3 = alloca i64, align 8
  %4 = alloca i32, align 4
  store ptr %0, ptr %2, align 8, !tbaa !39
  br label %5

5:                                                ; preds = %1
  call void @llvm.lifetime.start.p0(i64 8, ptr %3) #3
  %6 = call noundef i64 @_ZNKSt6vectorISt8functionIFNSt7__cxx1112basic_stringIcSt11char_traitsIcESaIcEEEvEESaIS8_EE4sizeEv(ptr noundef nonnull align 8 dereferenceable(24) @_ZN4pbrt18CheckCallbackScope9callbacksB5cxx11E) #3
  store i64 %6, ptr %3, align 8, !tbaa !41
  call void @llvm.lifetime.start.p0(i64 4, ptr %4) #3
  store i32 0, ptr %4, align 4, !tbaa !4
  %7 = load i64, ptr %3, align 8, !tbaa !41
  %8 = load i32, ptr %4, align 4, !tbaa !4
  %9 = sext i32 %8 to i64
  %10 = icmp ugt i64 %7, %9
  br i1 %10, label %13, label %11

11:                                               ; preds = %5
  invoke void @_ZN4pbrt8LogFatalIJRA17_KcRA2_S1_S3_RmS5_RiEEEvNS_8LogLevelEPS1_iS9_DpOT_(i32 noundef 2, ptr noundef @.str.6, i32 noundef 169, ptr noundef @.str.7, ptr noundef nonnull align 1 dereferenceable(17) @.str.8, ptr noundef nonnull align 1 dereferenceable(2) @.str.9, ptr noundef nonnull align 1 dereferenceable(17) @.str.8, ptr noundef nonnull align 8 dereferenceable(8) %3, ptr noundef nonnull align 1 dereferenceable(2) @.str.9, ptr noundef nonnull align 4 dereferenceable(4) %4) #20
          to label %12 unwind label %16

12:                                               ; preds = %11
  unreachable

13:                                               ; preds = %5
  call void @llvm.lifetime.end.p0(i64 4, ptr %4) #3
  call void @llvm.lifetime.end.p0(i64 8, ptr %3) #3
  br label %14

14:                                               ; preds = %13
  br label %15

15:                                               ; preds = %14
  call void @_ZNSt6vectorISt8functionIFNSt7__cxx1112basic_stringIcSt11char_traitsIcESaIcEEEvEESaIS8_EE8pop_backEv(ptr noundef nonnull align 8 dereferenceable(24) @_ZN4pbrt18CheckCallbackScope9callbacksB5cxx11E) #3
  ret void

16:                                               ; preds = %11
  %17 = landingpad { ptr, i32 }
          catch ptr null
  %18 = extractvalue { ptr, i32 } %17, 0
  call void @__clang_call_terminate(ptr %18) #19
  unreachable
}