; Function Attrs: mustprogress nounwind uwtable
define dso_local void @_ZN4pbrt18CheckCallbackScopeD2Ev(ptr nonnull readnone align 1 captures(none) %0) unnamed_addr #8 align 2 personality ptr @__gxx_personality_v0 {
  %2 = alloca i64, align 8
  %3 = alloca i32, align 4
  call void @llvm.lifetime.start.p0(i64 8, ptr nonnull %2) #24
  %4 = load ptr, ptr getelementptr inbounds nuw (i8, ptr @_ZN4pbrt18CheckCallbackScope9callbacksB5cxx11E, i64 8), align 8, !tbaa !23
  %5 = load ptr, ptr @_ZN4pbrt18CheckCallbackScope9callbacksB5cxx11E, align 8, !tbaa !20
  %6 = ptrtoint ptr %4 to i64
  %7 = ptrtoint ptr %5 to i64
  %8 = sub i64 %6, %7
  %9 = ashr exact i64 %8, 5
  store i64 %9, ptr %2, align 8, !tbaa !48
  call void @llvm.lifetime.start.p0(i64 4, ptr nonnull %3) #24
  store i32 0, ptr %3, align 4, !tbaa !4
  %.not = icmp eq ptr %4, %5
  br i1 %.not, label %10, label %12

10:                                               ; preds = %1
  invoke void @_ZN4pbrt8LogFatalIJRA17_KcRA2_S1_S3_RmS5_RiEEEvNS_8LogLevelEPS1_iS9_DpOT_(i32 noundef 2, ptr noundef nonnull @.str.6, i32 noundef 169, ptr noundef nonnull @.str.7, ptr noundef nonnull align 1 dereferenceable(17) @.str.8, ptr noundef nonnull align 1 dereferenceable(2) @.str.9, ptr noundef nonnull align 1 dereferenceable(17) @.str.8, ptr noundef nonnull align 8 dereferenceable(8) %2, ptr noundef nonnull align 1 dereferenceable(2) @.str.9, ptr noundef nonnull align 4 dereferenceable(4) %3) #28
          to label %11 unwind label %21

11:                                               ; preds = %10
  unreachable

12:                                               ; preds = %1
  call void @llvm.lifetime.end.p0(i64 4, ptr nonnull %3) #24
  call void @llvm.lifetime.end.p0(i64 8, ptr nonnull %2) #24
  %13 = getelementptr inbounds i8, ptr %4, i64 -32
  store ptr %13, ptr getelementptr inbounds nuw (i8, ptr @_ZN4pbrt18CheckCallbackScope9callbacksB5cxx11E, i64 8), align 8, !tbaa !23
  %14 = getelementptr inbounds i8, ptr %4, i64 -16
  %15 = load ptr, ptr %14, align 8, !tbaa !24
  %.not.i.i.i.i = icmp eq ptr %15, null
  br i1 %.not.i.i.i.i, label %_ZNSt6vectorISt8functionIFNSt7__cxx1112basic_stringIcSt11char_traitsIcESaIcEEEvEESaIS8_EE8pop_backEv.exit, label %16

16:                                               ; preds = %12
  %17 = invoke noundef zeroext i1 %15(ptr noundef nonnull align 8 dereferenceable(32) %13, ptr noundef nonnull align 8 dereferenceable(32) %13, i32 noundef 3)
          to label %_ZNSt6vectorISt8functionIFNSt7__cxx1112basic_stringIcSt11char_traitsIcESaIcEEEvEESaIS8_EE8pop_backEv.exit unwind label %18

18:                                               ; preds = %16
  %19 = landingpad { ptr, i32 }
          catch ptr null
  %20 = extractvalue { ptr, i32 } %19, 0
  tail call void @__clang_call_terminate(ptr %20) #26
  unreachable

_ZNSt6vectorISt8functionIFNSt7__cxx1112basic_stringIcSt11char_traitsIcESaIcEEEvEESaIS8_EE8pop_backEv.exit: ; preds = %12, %16
  ret void

21:                                               ; preds = %10
  %22 = landingpad { ptr, i32 }
          catch ptr null
  %23 = extractvalue { ptr, i32 } %22, 0
  call void @__clang_call_terminate(ptr %23) #26
  unreachable
}